target datalayout = "e-m:e-p270:32:32-p271:32:32-p272:64:64-i64:64-i128:128-f80:128-n8:16:32:64-S128"
target triple = "x86_64-pc-linux-gnu"

%"class.std::random_device" = type { %union.anon }
%union.anon = type { %"class.std::mersenne_twister_engine" }
%"class.std::mersenne_twister_engine" = type { [624 x i64], i64 }

@_ZN13sentencepiece12_GLOBAL__N_16g_seedE = internal global { i32 } { i32 -1 }, align 4

; Function Attrs: mustprogress nounwind uwtable
define linkonce_odr void @_ZNSt13random_deviceD2Ev(ptr noundef nonnull align 8 dereferenceable(5000) %0) unnamed_addr #4 comdat align 2 personality ptr @__gxx_personality_v0 {
  %2 = alloca ptr, align 8
  store ptr %0, ptr %2, align 8
  %3 = load ptr, ptr %2, align 8
  invoke void @_ZNSt13random_device7_M_finiEv(ptr noundef nonnull align 8 dereferenceable(5000) %3)
          to label %4 unwind label %5

4:                                                ; preds = %1
  ret void

5:                                                ; preds = %1
  %6 = landingpad { ptr, i32 }
          catch ptr null
  %7 = extractvalue { ptr, i32 } %6, 0
  call void @__clang_call_terminate(ptr %7) #13
  unreachable
}

; Function Attrs: mustprogress nounwind uwtable
define linkonce_odr noundef i32 @_ZStanSt12memory_orderSt23__memory_order_modifier(i32 noundef %0, i32 noundef %1) #4 comdat {
  %3 = alloca i32, align 4
  %4 = alloca i32, align 4
  store i32 %0, ptr %3, align 4
  store i32 %1, ptr %4, align 4
  %5 = load i32, ptr %3, align 4
  %6 = load i32, ptr %4, align 4
  %7 = and i32 %5, %6
  ret i32 %7
}

; Function Attrs: mustprogress uwtable
define linkonce_odr noundef i32 @_ZNSt13random_deviceclEv(ptr noundef nonnull align 8 dereferenceable(5000) %0) #5 comdat align 2 {
  %2 = alloca ptr, align 8
  store ptr %0, ptr %2, align 8
  %3 = load ptr, ptr %2, align 8
  %4 = call noundef i32 @_ZNSt13random_device9_M_getvalEv(ptr noundef nonnull align 8 dereferenceable(5000) %3)
  ret i32 %4
}

; Function Attrs: mustprogress nounwind uwtable
define linkonce_odr noundef i32 @_ZNKSt13__atomic_baseIjEcvjEv(ptr noundef nonnull align 4 dereferenceable(4) %0) #4 comdat align 2 {
  %2 = alloca ptr, align 8
  %3 = alloca i32, align 4
  %4 = alloca i32, align 4
  %5 = alloca i32, align 4
  %6 = alloca ptr, align 8
  store ptr %0, ptr %6, align 8
  %7 = load ptr, ptr %6, align 8
  store ptr %7, ptr %2, align 8
  store i32 5, ptr %3, align 4
  %8 = load ptr, ptr %2, align 8
  %9 = load i32, ptr %3, align 4
  %10 = call noundef i32 @_ZStanSt12memory_orderSt23__memory_order_modifier(i32 noundef %9, i32 noundef 65535)
  store i32 %10, ptr %4, align 4
  %11 = load i32, ptr %3, align 4
  switch i32 %11, label %12 [
    i32 1, label %14
    i32 2, label %14
    i32 5, label %16
  ]

12:                                               ; preds = %1
  %13 = load atomic i32, ptr %8 monotonic, align 4
  store i32 %13, ptr %5, align 4
  br label %18

14:                                               ; preds = %1, %1
  %15 = load atomic i32, ptr %8 acquire, align 4
  store i32 %15, ptr %5, align 4
  br label %18

16:                                               ; preds = %1
  %17 = load atomic i32, ptr %8 seq_cst, align 4
  store i32 %17, ptr %5, align 4
  br label %18

18:                                               ; preds = %16, %14, %12
  %19 = load i32, ptr %5, align 4
  ret i32 %19
}

; Function Attrs: mustprogress uwtable
define noundef i32 @_ZN13sentencepiece22GetRandomGeneratorSeedEv() #5 personality ptr @__gxx_personality_v0 {
  %1 = alloca ptr, align 8
  %2 = alloca i32, align 4
  %3 = alloca i32, align 4
  %4 = alloca i32, align 4
  %5 = alloca ptr, align 8
  %6 = alloca i32, align 4
  %7 = alloca i32, align 4
  %8 = alloca i32, align 4
  %9 = alloca i32, align 4
  %10 = alloca %"class.std::random_device", align 8
  %11 = alloca ptr, align 8
  %12 = alloca i32, align 4
  %13 = alloca i1, align 1
  %14 = call noundef i32 @_ZNKSt13__atomic_baseIjEcvjEv(ptr noundef nonnull align 4 dereferenceable(4) @_ZN13sentencepiece12_GLOBAL__N_16g_seedE) #3
  %15 = icmp eq i32 %14, -1
  store i1 false, ptr %13, align 1
  br i1 %15, label %16, label %20

16:                                               ; preds = %0
  invoke void @_ZNSt13random_deviceC2Ev(ptr noundef nonnull align 8 dereferenceable(5000) %10)
          to label %17 unwind label %38

17:                                               ; preds = %16
  store i1 true, ptr %13, align 1
  %18 = invoke noundef i32 @_ZNSt13random_deviceclEv(ptr noundef nonnull align 8 dereferenceable(5000) %10)
          to label %19 unwind label %42

19:                                               ; preds = %17
  br label %33

20:                                               ; preds = %0
  store ptr @_ZN13sentencepiece12_GLOBAL__N_16g_seedE, ptr %1, align 8
  store i32 5, ptr %2, align 4
  %21 = load ptr, ptr %1, align 8
  %22 = load i32, ptr %2, align 4
  %23 = call noundef i32 @_ZStanSt12memory_orderSt23__memory_order_modifier(i32 noundef %22, i32 noundef 65535)
  store i32 %23, ptr %3, align 4
  %24 = load i32, ptr %2, align 4
  switch i32 %24, label %25 [
    i32 1, label %27
    i32 2, label %27
    i32 5, label %29
  ]

25:                                               ; preds = %20
  %26 = load atomic i32, ptr %21 monotonic, align 4
  store i32 %26, ptr %4, align 4
  br label %31

27:                                               ; preds = %20, %20
  %28 = load atomic i32, ptr %21 acquire, align 4
  store i32 %28, ptr %4, align 4
  br label %31

29:                                               ; preds = %20
  %30 = load atomic i32, ptr %21 seq_cst, align 4
  store i32 %30, ptr %4, align 4
  br label %31

31:                                               ; preds = %29, %27, %25
  %32 = load i32, ptr %4, align 4
  br label %33

33:                                               ; preds = %31, %19
  %34 = phi i32 [ %18, %19 ], [ %32, %31 ]
  store i32 %34, ptr %9, align 4
  %35 = load i1, ptr %13, align 1
  br i1 %35, label %36, label %37

36:                                               ; preds = %33
  call void @_ZNSt13random_deviceD2Ev(ptr noundef nonnull align 8 dereferenceable(5000) %10) #3
  br label %37

37:                                               ; preds = %36, %33
  br label %65

38:                                               ; preds = %16
  %39 = landingpad { ptr, i32 }
          catch ptr null
  %40 = extractvalue { ptr, i32 } %39, 0
  store ptr %40, ptr %11, align 8
  %41 = extractvalue { ptr, i32 } %39, 1
  store i32 %41, ptr %12, align 4
  br label %49

42:                                               ; preds = %17
  %43 = landingpad { ptr, i32 }
          catch ptr null
  %44 = extractvalue { ptr, i32 } %43, 0
  store ptr %44, ptr %11, align 8
  %45 = extractvalue { ptr, i32 } %43, 1
  store i32 %45, ptr %12, align 4
  %46 = load i1, ptr %13, align 1
  br i1 %46, label %47, label %48

47:                                               ; preds = %42
  call void @_ZNSt13random_deviceD2Ev(ptr noundef nonnull align 8 dereferenceable(5000) %10) #3
  br label %48

48:                                               ; preds = %47, %42
  br label %49

49:                                               ; preds = %48, %38
  %50 = load ptr, ptr %11, align 8
  %51 = call ptr @__cxa_begin_catch(ptr %50) #3
  store ptr @_ZN13sentencepiece12_GLOBAL__N_16g_seedE, ptr %5, align 8
  store i32 5, ptr %6, align 4
  %52 = load ptr, ptr %5, align 8
  %53 = load i32, ptr %6, align 4
  %54 = call noundef i32 @_ZStanSt12memory_orderSt23__memory_order_modifier(i32 noundef %53, i32 noundef 65535)
  store i32 %54, ptr %7, align 4
  %55 = load i32, ptr %6, align 4
  switch i32 %55, label %56 [
    i32 1, label %58
    i32 2, label %58
    i32 5, label %60
  ]

56:                                               ; preds = %49
  %57 = load atomic i32, ptr %52 monotonic, align 4
  store i32 %57, ptr %8, align 4
  br label %62

58:                                               ; preds = %49, %49
  %59 = load atomic i32, ptr %52 acquire, align 4
  store i32 %59, ptr %8, align 4
  br label %62

60:                                               ; preds = %49
  %61 = load atomic i32, ptr %52 seq_cst, align 4
  store i32 %61, ptr %8, align 4
  br label %62

62:                                               ; preds = %60, %58, %56
  %63 = load i32, ptr %8, align 4
  store i32 %63, ptr %9, align 4
  call void @__cxa_end_catch()
  br label %65

64:                                               ; No predecessors!
  call void @llvm.trap()
  unreachable

65:                                               ; preds = %62, %37
  %66 = load i32, ptr %9, align 4
  ret i32 %66
}