; Function Attrs: mustprogress uwtable
define noundef i32 @_ZN13sentencepiece22GetRandomGeneratorSeedEv() local_unnamed_addr #4 personality ptr @__gxx_personality_v0 {
  %1 = alloca %"class.std::random_device", align 8
  %2 = load atomic i32, ptr @_ZN13sentencepiece12_GLOBAL__N_16g_seedE.0 seq_cst, align 4
  %3 = icmp eq i32 %2, -1
  br i1 %3, label %4, label %_ZNSt13random_deviceclEv.exit

4:                                                ; preds = %0
  invoke void @_ZNSt13random_deviceC2Ev(ptr noundef nonnull align 8 dereferenceable(5000) %1)
          to label %5 unwind label %12

5:                                                ; preds = %4
  %6 = invoke noundef i32 @_ZNSt13random_device9_M_getvalEv(ptr noundef nonnull align 8 dereferenceable(5000) %1)
          to label %8 unwind label %14

_ZNSt13random_deviceclEv.exit:                    ; preds = %0
  %7 = load atomic i32, ptr @_ZN13sentencepiece12_GLOBAL__N_16g_seedE.0 seq_cst, align 4
  br label %_ZNSt13random_deviceD2Ev.exit

8:                                                ; preds = %5
  invoke void @_ZNSt13random_device7_M_finiEv(ptr noundef nonnull align 8 dereferenceable(5000) %1)
          to label %_ZNSt13random_deviceD2Ev.exit unwind label %9

9:                                                ; preds = %8
  %10 = landingpad { ptr, i32 }
          catch ptr null
  %11 = extractvalue { ptr, i32 } %10, 0
  call void @__clang_call_terminate(ptr %11) #23
  unreachable

12:                                               ; preds = %4
  %13 = landingpad { ptr, i32 }
          catch ptr null
  br label %_ZNSt13random_deviceD2Ev.exit15

14:                                               ; preds = %5
  %15 = landingpad { ptr, i32 }
          catch ptr null
  invoke void @_ZNSt13random_device7_M_finiEv(ptr noundef nonnull align 8 dereferenceable(5000) %1)
          to label %_ZNSt13random_deviceD2Ev.exit15 unwind label %16

16:                                               ; preds = %14
  %17 = landingpad { ptr, i32 }
          catch ptr null
  %18 = extractvalue { ptr, i32 } %17, 0
  call void @__clang_call_terminate(ptr %18) #23
  unreachable

_ZNSt13random_deviceD2Ev.exit15:                  ; preds = %14, %12
  %.pn = phi { ptr, i32 } [ %13, %12 ], [ %15, %14 ]
  %.011 = extractvalue { ptr, i32 } %.pn, 0
  %19 = call ptr @__cxa_begin_catch(ptr %.011) #9
  %20 = load atomic i32, ptr @_ZN13sentencepiece12_GLOBAL__N_16g_seedE.0 seq_cst, align 4
  call void @__cxa_end_catch()
  br label %_ZNSt13random_deviceD2Ev.exit

_ZNSt13random_deviceD2Ev.exit:                    ; preds = %8, %_ZNSt13random_deviceclEv.exit, %_ZNSt13random_deviceD2Ev.exit15
  %.012 = phi i32 [ %7, %_ZNSt13random_deviceclEv.exit ], [ %20, %_ZNSt13random_deviceD2Ev.exit15 ], [ %6, %8 ]
  ret i32 %.012
}